; Function Attrs: nounwind uwtable
define hidden signext i8 @nfaReportCurrentMatches(ptr noundef %0, ptr noundef %1) local_unnamed_addr #0 {
  %3 = getelementptr inbounds nuw i8, ptr %0, i64 8
  %4 = load i8, ptr %3, align 8
  switch i8 %4, label %47 [
    i8 0, label %5
    i8 1, label %7
    i8 2, label %9
    i8 3, label %11
    i8 4, label %13
    i8 5, label %15
    i8 6, label %17
    i8 7, label %19
    i8 8, label %21
    i8 9, label %23
    i8 10, label %25
    i8 11, label %27
    i8 12, label %29
    i8 13, label %31
    i8 14, label %33
    i8 15, label %35
    i8 16, label %37
    i8 17, label %39
    i8 18, label %41
    i8 19, label %43
    i8 20, label %45
  ]

5:                                                ; preds = %2
  %6 = tail call signext i8 @nfaExecLimEx32_reportCurrent(ptr noundef nonnull %0, ptr noundef %1) #3
  br label %47

7:                                                ; preds = %2
  %8 = tail call signext i8 @nfaExecLimEx64_reportCurrent(ptr noundef nonnull %0, ptr noundef %1) #3
  br label %47

9:                                                ; preds = %2
  %10 = tail call signext i8 @nfaExecLimEx128_reportCurrent(ptr noundef nonnull %0, ptr noundef %1) #3
  br label %47

11:                                               ; preds = %2
  %12 = tail call signext i8 @nfaExecLimEx256_reportCurrent(ptr noundef nonnull %0, ptr noundef %1) #3
  br label %47

13:                                               ; preds = %2
  %14 = tail call signext i8 @nfaExecLimEx384_reportCurrent(ptr noundef nonnull %0, ptr noundef %1) #3
  br label %47

15:                                               ; preds = %2
  %16 = tail call signext i8 @nfaExecLimEx512_reportCurrent(ptr noundef nonnull %0, ptr noundef %1) #3
  br label %47

17:                                               ; preds = %2
  %18 = tail call signext i8 @nfaExecMcClellan8_reportCurrent(ptr noundef nonnull %0, ptr noundef %1) #3
  br label %47

19:                                               ; preds = %2
  %20 = tail call signext i8 @nfaExecMcClellan16_reportCurrent(ptr noundef nonnull %0, ptr noundef %1) #3
  br label %47

21:                                               ; preds = %2
  %22 = tail call signext i8 @nfaExecGough8_reportCurrent(ptr noundef nonnull %0, ptr noundef %1) #3
  br label %47

23:                                               ; preds = %2
  %24 = tail call signext i8 @nfaExecGough16_reportCurrent(ptr noundef nonnull %0, ptr noundef %1) #3
  br label %47

25:                                               ; preds = %2
  %26 = tail call signext i8 @nfaExecMpv_reportCurrent(ptr noundef nonnull %0, ptr noundef %1) #3
  br label %47

27:                                               ; preds = %2
  %28 = tail call signext i8 @nfaExecLbrDot_reportCurrent(ptr noundef nonnull %0, ptr noundef %1) #3
  br label %47

29:                                               ; preds = %2
  %30 = tail call signext i8 @nfaExecLbrVerm_reportCurrent(ptr noundef nonnull %0, ptr noundef %1) #3
  br label %47

31:                                               ; preds = %2
  %32 = tail call signext i8 @nfaExecLbrNVerm_reportCurrent(ptr noundef nonnull %0, ptr noundef %1) #3
  br label %47

33:                                               ; preds = %2
  %34 = tail call signext i8 @nfaExecLbrShuf_reportCurrent(ptr noundef nonnull %0, ptr noundef %1) #3
  br label %47

35:                                               ; preds = %2
  %36 = tail call signext i8 @nfaExecLbrTruf_reportCurrent(ptr noundef nonnull %0, ptr noundef %1) #3
  br label %47

37:                                               ; preds = %2
  %38 = tail call signext i8 @nfaExecCastle_reportCurrent(ptr noundef nonnull %0, ptr noundef %1) #3
  br label %47

39:                                               ; preds = %2
  %40 = tail call signext i8 @nfaExecSheng_reportCurrent(ptr noundef nonnull %0, ptr noundef %1) #3
  br label %47

41:                                               ; preds = %2
  %42 = tail call signext i8 @nfaExecTamarama_reportCurrent(ptr noundef nonnull %0, ptr noundef %1) #3
  br label %47

43:                                               ; preds = %2
  %44 = tail call signext i8 @nfaExecMcSheng8_reportCurrent(ptr noundef nonnull %0, ptr noundef %1) #3
  br label %47

45:                                               ; preds = %2
  %46 = tail call signext i8 @nfaExecMcSheng16_reportCurrent(ptr noundef nonnull %0, ptr noundef %1) #3
  br label %47

47:                                               ; preds = %2, %45, %43, %41, %39, %37, %35, %33, %31, %29, %27, %25, %23, %21, %19, %17, %15, %13, %11, %9, %7, %5
  %.0 = phi i8 [ %46, %45 ], [ %44, %43 ], [ %42, %41 ], [ %40, %39 ], [ %38, %37 ], [ %36, %35 ], [ %34, %33 ], [ %32, %31 ], [ %30, %29 ], [ %28, %27 ], [ %26, %25 ], [ %24, %23 ], [ %22, %21 ], [ %20, %19 ], [ %18, %17 ], [ %16, %15 ], [ %14, %13 ], [ %12, %11 ], [ %10, %9 ], [ %8, %7 ], [ %6, %5 ], [ 0, %2 ]
  ret i8 %.0
}